target datalayout = "e-m:e-p270:32:32-p271:32:32-p272:64:64-i64:64-i128:128-f80:128-n8:16:32:64-S128"
target triple = "x86_64-unknown-linux-gnu"

%"class.std::__cxx11::basic_string" = type { %"struct.std::__cxx11::basic_string<char>::_Alloc_hider", i64, %union.anon }
%"struct.std::__cxx11::basic_string<char>::_Alloc_hider" = type { ptr }
%union.anon = type { i64, [8 x i8] }
%"class.std::vector.15" = type { %"struct.std::_Vector_base.16" }
%"struct.std::_Vector_base.16" = type { %"struct.std::_Vector_base<std::__cxx11::basic_string<char>, std::allocator<std::__cxx11::basic_string<char>>>::_Vector_impl" }
%"struct.std::_Vector_base<std::__cxx11::basic_string<char>, std::allocator<std::__cxx11::basic_string<char>>>::_Vector_impl" = type { %"struct.std::_Vector_base<std::__cxx11::basic_string<char>, std::allocator<std::__cxx11::basic_string<char>>>::_Vector_impl_data" }
%"struct.std::_Vector_base<std::__cxx11::basic_string<char>, std::allocator<std::__cxx11::basic_string<char>>>::_Vector_impl_data" = type { ptr, ptr, ptr }
%"class.std::basic_ios" = type { %"class.std::ios_base", ptr, i8, i8, ptr, ptr, ptr, ptr }
%"class.std::ios_base" = type { ptr, i64, i64, i32, i32, i32, ptr, %"struct.std::ios_base::_Words", [8 x %"struct.std::ios_base::_Words"], i32, ptr, %"class.std::locale" }
%"struct.std::ios_base::_Words" = type { ptr, i64 }
%"class.std::locale" = type { ptr }
%"struct.std::_Vector_base.10" = type { %"struct.std::_Vector_base<node::PropInfo, std::allocator<node::PropInfo>>::_Vector_impl" }
%"struct.std::_Vector_base<node::PropInfo, std::allocator<node::PropInfo>>::_Vector_impl" = type { %"struct.std::_Vector_base<node::PropInfo, std::allocator<node::PropInfo>>::_Vector_impl_data" }
%"struct.std::_Vector_base<node::PropInfo, std::allocator<node::PropInfo>>::_Vector_impl_data" = type { ptr, ptr, ptr }
%"struct.node::RealmSerializeInfo" = type { %"class.std::vector.15", %"class.std::vector.9", %"class.std::vector.9", i64 }
%"class.std::vector.9" = type { %"struct.std::_Vector_base.10" }
%"class.node::BlobSerializerDeserializer" = type { i8 }
%"class.std::__cxx11::basic_stringstream" = type { %"class.std::basic_iostream.base", %"class.std::__cxx11::basic_stringbuf", %"class.std::basic_ios" }
%"class.std::basic_iostream.base" = type { %"class.std::basic_istream.base", %"class.std::basic_ostream.base" }
%"class.std::basic_istream.base" = type { ptr, i64 }
%"class.std::basic_ostream.base" = type { ptr }
%"class.std::__cxx11::basic_stringbuf" = type { %"class.std::basic_streambuf", i32, %"class.std::__cxx11::basic_string" }
%"class.std::basic_streambuf" = type { ptr, ptr, ptr, ptr, ptr, ptr, ptr, %"class.std::locale" }

@.str.73 = private unnamed_addr constant [33 x i8] c"\0AWrite<RealmSerializeInfo>() %s\0A\00", align 1
@.str.74 = private unnamed_addr constant [44 x i8] c"Write<RealmSerializeInfo>() wrote %d bytes\0A\00", align 1
@stderr = external global ptr, align 8

; Function Attrs: mustprogress nounwind uwtable
define linkonce_odr dso_local void @_ZNK4node26BlobSerializerDeserializer5DebugIJRmEEEvPKcDpOT_(ptr noundef nonnull align 1 dereferenceable(1) %this, ptr noundef %format, ptr noundef nonnull align 8 dereferenceable(8) %args) #4 comdat align 2 {
entry:
  %this.addr = alloca ptr, align 8
  %format.addr = alloca ptr, align 8
  %args.addr = alloca ptr, align 8
  store ptr %this, ptr %this.addr, align 8
  store ptr %format, ptr %format.addr, align 8
  store ptr %args, ptr %args.addr, align 8
  %this1 = load ptr, ptr %this.addr, align 8
  %is_debug = getelementptr inbounds %"class.node::BlobSerializerDeserializer", ptr %this1, i32 0, i32 0
  %0 = load i8, ptr %is_debug, align 1
  %tobool = trunc i8 %0 to i1
  br i1 %tobool, label %if.then, label %if.end

if.then:                                          ; preds = %entry
  %1 = load ptr, ptr @stderr, align 8
  %2 = load ptr, ptr %format.addr, align 8
  %3 = load ptr, ptr %args.addr, align 8
  call void @_ZN4node7FPrintFIJRmEEEvP8_IO_FILEPKcDpOT_(ptr noundef %1, ptr noundef %2, ptr noundef nonnull align 8 dereferenceable(8) %3) #18
  br label %if.end

if.end:                                           ; preds = %if.then, %entry
  ret void
}

; Function Attrs: mustprogress nounwind uwtable
define linkonce_odr dso_local noundef i64 @_ZN4node14BlobSerializerINS_18SnapshotSerializerEE15WriteArithmeticImEEmRKT_(ptr noundef nonnull align 8 dereferenceable(32) %this, ptr noundef nonnull align 8 dereferenceable(8) %data) #4 comdat align 2 {
entry:
  %this.addr = alloca ptr, align 8
  %data.addr = alloca ptr, align 8
  store ptr %this, ptr %this.addr, align 8
  store ptr %data, ptr %data.addr, align 8
  %this1 = load ptr, ptr %this.addr, align 8
  %0 = load ptr, ptr %data.addr, align 8
  %call = call noundef i64 @_ZN4node14BlobSerializerINS_18SnapshotSerializerEE15WriteArithmeticImEEmPKT_m(ptr noundef nonnull align 8 dereferenceable(32) %this1, ptr noundef %0, i64 noundef 1)
  ret i64 %call
}

; Function Attrs: mustprogress nounwind uwtable
define linkonce_odr dso_local void @_ZNK4node26BlobSerializerDeserializer5DebugIJPKcEEEvS3_DpOT_(ptr noundef nonnull align 1 dereferenceable(1) %this, ptr noundef %format, ptr noundef nonnull align 8 dereferenceable(8) %args) #4 comdat align 2 {
entry:
  %this.addr = alloca ptr, align 8
  %format.addr = alloca ptr, align 8
  %args.addr = alloca ptr, align 8
  store ptr %this, ptr %this.addr, align 8
  store ptr %format, ptr %format.addr, align 8
  store ptr %args, ptr %args.addr, align 8
  %this1 = load ptr, ptr %this.addr, align 8
  %is_debug = getelementptr inbounds %"class.node::BlobSerializerDeserializer", ptr %this1, i32 0, i32 0
  %0 = load i8, ptr %is_debug, align 1
  %tobool = trunc i8 %0 to i1
  br i1 %tobool, label %if.then, label %if.end

if.then:                                          ; preds = %entry
  %1 = load ptr, ptr @stderr, align 8
  %2 = load ptr, ptr %format.addr, align 8
  %3 = load ptr, ptr %args.addr, align 8
  call void @_ZN4node7FPrintFIJPKcEEEvP8_IO_FILES2_DpOT_(ptr noundef %1, ptr noundef %2, ptr noundef nonnull align 8 dereferenceable(8) %3) #18
  br label %if.end

if.end:                                           ; preds = %if.then, %entry
  ret void
}

; Function Attrs: mustprogress nounwind uwtable
define linkonce_odr dso_local void @_ZNK4node26BlobSerializerDeserializer5ToStrINS_18RealmSerializeInfoEEENSt7__cxx1112basic_stringIcSt11char_traitsIcESaIcEEERKT_(ptr noalias sret(%"class.std::__cxx11::basic_string") align 8 %agg.result, ptr noundef nonnull align 1 dereferenceable(1) %this, ptr noundef nonnull align 8 dereferenceable(80) %arg) #4 comdat align 2 {
entry:
  %result.ptr = alloca ptr, align 8
  %this.addr = alloca ptr, align 8
  %arg.addr = alloca ptr, align 8
  %ss = alloca %"class.std::__cxx11::basic_stringstream", align 8
  store ptr %agg.result, ptr %result.ptr, align 8
  store ptr %this, ptr %this.addr, align 8
  store ptr %arg, ptr %arg.addr, align 8
  call void @_ZNSt7__cxx1118basic_stringstreamIcSt11char_traitsIcESaIcEEC1Ev(ptr noundef nonnull align 8 dereferenceable(128) %ss)
  %add.ptr = getelementptr inbounds i8, ptr %ss, i64 16
  %0 = load ptr, ptr %arg.addr, align 8
  %call = call noundef nonnull align 8 dereferenceable(8) ptr @_ZN4nodelsERSoRKNS_18RealmSerializeInfoE(ptr noundef nonnull align 8 dereferenceable(8) %add.ptr, ptr noundef nonnull align 8 dereferenceable(80) %0)
  call void @_ZNKSt7__cxx1118basic_stringstreamIcSt11char_traitsIcESaIcEE3strEv(ptr sret(%"class.std::__cxx11::basic_string") align 8 %agg.result, ptr noundef nonnull align 8 dereferenceable(128) %ss)
  call void @_ZNSt7__cxx1118basic_stringstreamIcSt11char_traitsIcESaIcEED1Ev(ptr noundef nonnull align 8 dereferenceable(128) %ss) #3
  ret void
}

; Function Attrs: mustprogress nounwind uwtable
define dso_local noundef i64 @_ZN4node18SnapshotSerializer5WriteINS_18RealmSerializeInfoETnPNSt9enable_ifIXntsr3std7is_sameIT_NSt7__cxx1112basic_stringIcSt11char_traitsIcESaIcEEEEE5valueEvE4typeELPv0ETnPNS3_IXntsr3std13is_arithmeticIS4_EE5valueEvE4typeELSE_0EEEmRKS4_(ptr noundef nonnull align 8 dereferenceable(32) %this, ptr noundef nonnull align 8 dereferenceable(80) %data) #4 align 2 {
entry:
  %this.addr = alloca ptr, align 8
  %data.addr = alloca ptr, align 8
  %str = alloca %"class.std::__cxx11::basic_string", align 8
  %ref.tmp = alloca ptr, align 8
  %written_total = alloca i64, align 8
  store ptr %this, ptr %this.addr, align 8
  store ptr %data, ptr %data.addr, align 8
  %this1 = load ptr, ptr %this.addr, align 8
  %is_debug = getelementptr inbounds %"class.node::BlobSerializerDeserializer", ptr %this1, i32 0, i32 0
  %0 = load i8, ptr %is_debug, align 8
  %tobool = trunc i8 %0 to i1
  br i1 %tobool, label %if.then, label %if.end

if.then:                                          ; preds = %entry
  %1 = load ptr, ptr %data.addr, align 8
  call void @_ZNK4node26BlobSerializerDeserializer5ToStrINS_18RealmSerializeInfoEEENSt7__cxx1112basic_stringIcSt11char_traitsIcESaIcEEERKT_(ptr sret(%"class.std::__cxx11::basic_string") align 8 %str, ptr noundef nonnull align 1 dereferenceable(1) %this1, ptr noundef nonnull align 8 dereferenceable(80) %1)
  %call = call noundef ptr @_ZNKSt7__cxx1112basic_stringIcSt11char_traitsIcESaIcEE5c_strEv(ptr noundef nonnull align 8 dereferenceable(32) %str) #3
  store ptr %call, ptr %ref.tmp, align 8
  call void @_ZNK4node26BlobSerializerDeserializer5DebugIJPKcEEEvS3_DpOT_(ptr noundef nonnull align 1 dereferenceable(1) %this1, ptr noundef @.str.73, ptr noundef nonnull align 8 dereferenceable(8) %ref.tmp)
  call void @_ZNSt7__cxx1112basic_stringIcSt11char_traitsIcESaIcEED1Ev(ptr noundef nonnull align 8 dereferenceable(32) %str) #3
  br label %if.end

if.end:                                           ; preds = %if.then, %entry
  %2 = load ptr, ptr %data.addr, align 8
  %builtins = getelementptr inbounds %"struct.node::RealmSerializeInfo", ptr %2, i32 0, i32 0
  %call2 = call noundef i64 @_ZN4node14BlobSerializerINS_18SnapshotSerializerEE11WriteVectorINSt7__cxx1112basic_stringIcSt11char_traitsIcESaIcEEEEEmRKSt6vectorIT_SaISB_EE(ptr noundef nonnull align 8 dereferenceable(32) %this1, ptr noundef nonnull align 8 dereferenceable(24) %builtins)
  store i64 %call2, ptr %written_total, align 8
  %3 = load ptr, ptr %data.addr, align 8
  %persistent_values = getelementptr inbounds %"struct.node::RealmSerializeInfo", ptr %3, i32 0, i32 1
  %call3 = call noundef i64 @_ZN4node14BlobSerializerINS_18SnapshotSerializerEE11WriteVectorINS_8PropInfoEEEmRKSt6vectorIT_SaIS6_EE(ptr noundef nonnull align 8 dereferenceable(32) %this1, ptr noundef nonnull align 8 dereferenceable(24) %persistent_values)
  %4 = load i64, ptr %written_total, align 8
  %add = add i64 %4, %call3
  store i64 %add, ptr %written_total, align 8
  %5 = load ptr, ptr %data.addr, align 8
  %native_objects = getelementptr inbounds %"struct.node::RealmSerializeInfo", ptr %5, i32 0, i32 2
  %call4 = call noundef i64 @_ZN4node14BlobSerializerINS_18SnapshotSerializerEE11WriteVectorINS_8PropInfoEEEmRKSt6vectorIT_SaIS6_EE(ptr noundef nonnull align 8 dereferenceable(32) %this1, ptr noundef nonnull align 8 dereferenceable(24) %native_objects)
  %6 = load i64, ptr %written_total, align 8
  %add5 = add i64 %6, %call4
  store i64 %add5, ptr %written_total, align 8
  %7 = load ptr, ptr %data.addr, align 8
  %context = getelementptr inbounds %"struct.node::RealmSerializeInfo", ptr %7, i32 0, i32 3
  %call6 = call noundef i64 @_ZN4node14BlobSerializerINS_18SnapshotSerializerEE15WriteArithmeticImEEmRKT_(ptr noundef nonnull align 8 dereferenceable(32) %this1, ptr noundef nonnull align 8 dereferenceable(8) %context)
  %8 = load i64, ptr %written_total, align 8
  %add7 = add i64 %8, %call6
  store i64 %add7, ptr %written_total, align 8
  call void @_ZNK4node26BlobSerializerDeserializer5DebugIJRmEEEvPKcDpOT_(ptr noundef nonnull align 1 dereferenceable(1) %this1, ptr noundef @.str.74, ptr noundef nonnull align 8 dereferenceable(8) %written_total)
  %9 = load i64, ptr %written_total, align 8
  ret i64 %9
}